# SymbolsHelper-Confirmed: 1.0.0 amd64
libKUserFeedbackWidgets.so.1 libkuserfeedbackwidgets1 #MINVER#
* Build-Depends-Package: kuserfeedback-dev
 _ZN13KUserFeedback15StyleInfoSource4dataEv@Base 1.0.0
 _ZN13KUserFeedback15StyleInfoSourceC1Ev@Base 1.0.0
 _ZN13KUserFeedback15StyleInfoSourceC2Ev@Base 1.0.0
 _ZN13KUserFeedback17NotificationPopup11eventFilterEP7QObjectP6QEvent@Base 1.0.0
 _ZN13KUserFeedback17NotificationPopup11qt_metacallEN11QMetaObject4CallEiPPv@Base 1.0.0
 _ZN13KUserFeedback17NotificationPopup11qt_metacastEPKc@Base 1.0.0
 _ZN13KUserFeedback17NotificationPopup15keyReleaseEventEP9QKeyEvent@Base 1.0.0
 _ZN13KUserFeedback17NotificationPopup16staticMetaObjectE@Base 1.0.0
 _ZN13KUserFeedback17NotificationPopup19setFeedbackProviderEPNS_8ProviderE@Base 1.0.0
 _ZN13KUserFeedback17NotificationPopupC1EP7QWidget@Base 1.0.0
 _ZN13KUserFeedback17NotificationPopupC2EP7QWidget@Base 1.0.0
 _ZN13KUserFeedback17NotificationPopupD0Ev@Base 1.0.0
 _ZN13KUserFeedback17NotificationPopupD1Ev@Base 1.0.0
 _ZN13KUserFeedback17NotificationPopupD2Ev@Base 1.0.0
 _ZN13KUserFeedback20FeedbackConfigDialog11qt_metacallEN11QMetaObject4CallEiPPv@Base 1.0.0
 _ZN13KUserFeedback20FeedbackConfigDialog11qt_metacastEPKc@Base 1.0.0
 _ZN13KUserFeedback20FeedbackConfigDialog16staticMetaObjectE@Base 1.0.0
 _ZN13KUserFeedback20FeedbackConfigDialog19setFeedbackProviderEPNS_8ProviderE@Base 1.0.0
 _ZN13KUserFeedback20FeedbackConfigDialog6acceptEv@Base 1.0.0
 _ZN13KUserFeedback20FeedbackConfigDialogC1EP7QWidget@Base 1.0.0
 _ZN13KUserFeedback20FeedbackConfigDialogC2EP7QWidget@Base 1.0.0
 _ZN13KUserFeedback20FeedbackConfigDialogD0Ev@Base 1.0.0
 _ZN13KUserFeedback20FeedbackConfigDialogD1Ev@Base 1.0.0
 _ZN13KUserFeedback20FeedbackConfigDialogD2Ev@Base 1.0.0
 _ZN13KUserFeedback20FeedbackConfigWidget11eventFilterEP7QObjectP6QEvent@Base 1.0.0
 _ZN13KUserFeedback20FeedbackConfigWidget11qt_metacallEN11QMetaObject4CallEiPPv@Base 1.0.0
 _ZN13KUserFeedback20FeedbackConfigWidget11qt_metacastEPKc@Base 1.0.0
 _ZN13KUserFeedback20FeedbackConfigWidget16staticMetaObjectE@Base 1.0.0
 _ZN13KUserFeedback20FeedbackConfigWidget19setFeedbackProviderEPNS_8ProviderE@Base 1.0.0
 _ZN13KUserFeedback20FeedbackConfigWidget20configurationChangedEv@Base 1.0.0
 _ZN13KUserFeedback20FeedbackConfigWidgetC1EP7QWidget@Base 1.0.0
 _ZN13KUserFeedback20FeedbackConfigWidgetC2EP7QWidget@Base 1.0.0
 _ZN13KUserFeedback20FeedbackConfigWidgetD0Ev@Base 1.0.0
 _ZN13KUserFeedback20FeedbackConfigWidgetD1Ev@Base 1.0.0
 _ZN13KUserFeedback20FeedbackConfigWidgetD2Ev@Base 1.0.0
 _ZNK13KUserFeedback15StyleInfoSource11descriptionEv@Base 1.0.0
 _ZNK13KUserFeedback15StyleInfoSource4nameEv@Base 1.0.0
 _ZNK13KUserFeedback17NotificationPopup10metaObjectEv@Base 1.0.0
 _ZNK13KUserFeedback20FeedbackConfigDialog10metaObjectEv@Base 1.0.0
 _ZNK13KUserFeedback20FeedbackConfigWidget10metaObjectEv@Base 1.0.0
 _ZNK13KUserFeedback20FeedbackConfigWidget13telemetryModeEv@Base 1.0.0
 _ZNK13KUserFeedback20FeedbackConfigWidget14surveyIntervalEv@Base 1.0.0
 _ZNK13KUserFeedback20FeedbackConfigWidget16feedbackProviderEv@Base 1.0.0
 _ZTIN13KUserFeedback15StyleInfoSourceE@Base 1.0.0
 _ZTIN13KUserFeedback17NotificationPopupE@Base 1.0.0
 _ZTIN13KUserFeedback20FeedbackConfigDialogE@Base 1.0.0
 _ZTIN13KUserFeedback20FeedbackConfigWidgetE@Base 1.0.0
 _ZTSN13KUserFeedback15StyleInfoSourceE@Base 1.0.0
 _ZTSN13KUserFeedback17NotificationPopupE@Base 1.0.0
 _ZTSN13KUserFeedback20FeedbackConfigDialogE@Base 1.0.0
 _ZTSN13KUserFeedback20FeedbackConfigWidgetE@Base 1.0.0
 _ZTVN13KUserFeedback15StyleInfoSourceE@Base 1.0.0
 _ZTVN13KUserFeedback17NotificationPopupE@Base 1.0.0
 _ZTVN13KUserFeedback20FeedbackConfigDialogE@Base 1.0.0
 _ZTVN13KUserFeedback20FeedbackConfigWidgetE@Base 1.0.0
 (c++)"non-virtual thunk to KUserFeedback::FeedbackConfigDialog::~FeedbackConfigDialog()@Base" 1.0.0
 (c++)"non-virtual thunk to KUserFeedback::FeedbackConfigWidget::~FeedbackConfigWidget()@Base" 1.0.0
 (c++)"non-virtual thunk to KUserFeedback::NotificationPopup::~NotificationPopup()@Base" 1.0.0
